; Function Attrs: inlinehint nofree norecurse nosync nounwind memory(argmem: readwrite) uwtable
define internal fastcc void @Abc_TtAndSharp(ptr noundef writeonly captures(none) %0, ptr noundef readonly captures(none) %1, ptr noundef readonly captures(none) %2, i32 noundef %3, i32 noundef range(i32 0, 2) %4) unnamed_addr #15 {
  %.not = icmp eq i32 %4, 0
  %6 = icmp sgt i32 %3, 0
  br i1 %.not, label %.preheader, label %.preheader18

.preheader18:                                     ; preds = %5
  br i1 %6, label %.lr.ph.preheader, label %.loopexit

.lr.ph.preheader:                                 ; preds = %.preheader18
  %wide.trip.count = zext nneg i32 %3 to i64
  br label %.lr.ph

.preheader:                                       ; preds = %5
  br i1 %6, label %.lr.ph22.preheader, label %.loopexit

.lr.ph22.preheader:                               ; preds = %.preheader
  %wide.trip.count28 = zext nneg i32 %3 to i64
  br label %.lr.ph22

.lr.ph:                                           ; preds = %.lr.ph.preheader, %.lr.ph
  %indvars.iv = phi i64 [ 0, %.lr.ph.preheader ], [ %indvars.iv.next, %.lr.ph ]
  %7 = getelementptr inbounds nuw i64, ptr %1, i64 %indvars.iv
  %8 = load i64, ptr %7, align 8, !tbaa !94
  %9 = getelementptr inbounds nuw i64, ptr %2, i64 %indvars.iv
  %10 = load i64, ptr %9, align 8, !tbaa !94
  %11 = xor i64 %10, -1
  %12 = and i64 %8, %11
  %13 = getelementptr inbounds nuw i64, ptr %0, i64 %indvars.iv
  store i64 %12, ptr %13, align 8, !tbaa !94
  %indvars.iv.next = add nuw nsw i64 %indvars.iv, 1
  %exitcond.not = icmp eq i64 %indvars.iv.next, %wide.trip.count
  br i1 %exitcond.not, label %.loopexit, label %.lr.ph, !llvm.loop !182

.lr.ph22:                                         ; preds = %.lr.ph22.preheader, %.lr.ph22
  %indvars.iv25 = phi i64 [ 0, %.lr.ph22.preheader ], [ %indvars.iv.next26, %.lr.ph22 ]
  %14 = getelementptr inbounds nuw i64, ptr %1, i64 %indvars.iv25
  %15 = load i64, ptr %14, align 8, !tbaa !94
  %16 = getelementptr inbounds nuw i64, ptr %2, i64 %indvars.iv25
  %17 = load i64, ptr %16, align 8, !tbaa !94
  %18 = and i64 %17, %15
  %19 = getelementptr inbounds nuw i64, ptr %0, i64 %indvars.iv25
  store i64 %18, ptr %19, align 8, !tbaa !94
  %indvars.iv.next26 = add nuw nsw i64 %indvars.iv25, 1
  %exitcond29.not = icmp eq i64 %indvars.iv.next26, %wide.trip.count28
  br i1 %exitcond29.not, label %.loopexit, label %.lr.ph22, !llvm.loop !183

.loopexit:                                        ; preds = %.lr.ph, %.lr.ph22, %.preheader18, %.preheader
  ret void
}